target datalayout = "e-m:e-p270:32:32-p271:32:32-p272:64:64-i64:64-i128:128-f80:128-n8:16:32:64-S128"
target triple = "x86_64-pc-linux-gnu"

%struct._crawler_module_t = type { ptr, %struct.crawler_client_t, ptr, i32 }
%struct.crawler_client_t = type { ptr, i32, i32, i32, ptr }
%struct._stritem = type { ptr, ptr, ptr, i32, i32, i32, i16, i16, i8, i8, [0 x %union.anon] }
%union.anon = type { i64 }

@current_time = external global i32, align 4
@.str.9 = private unnamed_addr constant [69 x i8] c"key=%s exp=%ld la=%llu cas=%llu fetch=%s cls=%u size=%lu flags=%llu\0A\00", align 1
@process_started = external global i64, align 8
@.str.10 = private unnamed_addr constant [4 x i8] c"yes\00", align 1
@.str.11 = private unnamed_addr constant [3 x i8] c"no\00", align 1

; Function Attrs: nounwind uwtable
define internal void @crawler_metadump_eval(ptr noundef %0, ptr noundef %1, i32 noundef %2, i32 noundef %3) #0 {
  %5 = alloca ptr, align 8
  %6 = alloca ptr, align 8
  %7 = alloca i32, align 4
  %8 = alloca i32, align 4
  %9 = alloca [751 x i8], align 16
  %10 = alloca i32, align 4
  %11 = alloca i32, align 4
  %12 = alloca i32, align 4
  %13 = alloca i32, align 4
  store ptr %0, ptr %5, align 8, !tbaa !4
  store ptr %1, ptr %6, align 8, !tbaa !28
  store i32 %2, ptr %7, align 4, !tbaa !20
  store i32 %3, ptr %8, align 4, !tbaa !20
  call void @llvm.lifetime.start.p0(i64 751, ptr %9) #11
  call void @llvm.lifetime.start.p0(i64 4, ptr %10) #11
  %14 = load ptr, ptr %6, align 8, !tbaa !28
  %15 = call i32 @item_is_flushed(ptr noundef %14)
  store i32 %15, ptr %10, align 4, !tbaa !20
  %16 = load ptr, ptr %6, align 8, !tbaa !28
  %17 = getelementptr inbounds nuw %struct._stritem, ptr %16, i32 0, i32 4
  %18 = load i32, ptr %17, align 4, !tbaa !20
  %19 = icmp ne i32 %18, 0
  br i1 %19, label %20, label %26

20:                                               ; preds = %4
  %21 = load ptr, ptr %6, align 8, !tbaa !28
  %22 = getelementptr inbounds nuw %struct._stritem, ptr %21, i32 0, i32 4
  %23 = load i32, ptr %22, align 4, !tbaa !20
  %24 = load volatile i32, ptr @current_time, align 4, !tbaa !20
  %25 = icmp ult i32 %23, %24
  br i1 %25, label %29, label %26

26:                                               ; preds = %20, %4
  %27 = load i32, ptr %10, align 4, !tbaa !20
  %28 = icmp ne i32 %27, 0
  br i1 %28, label %29, label %34

29:                                               ; preds = %26, %20
  %30 = load ptr, ptr %6, align 8, !tbaa !28
  %31 = getelementptr inbounds nuw %struct._stritem, ptr %30, i32 0, i32 6
  %32 = load i16, ptr %31, align 4, !tbaa !31
  %33 = add i16 %32, -1
  store i16 %33, ptr %31, align 4, !tbaa !31
  store i32 1, ptr %11, align 4
  br label %183

34:                                               ; preds = %26
  call void @llvm.lifetime.start.p0(i64 4, ptr %12) #11
  %35 = load ptr, ptr %6, align 8, !tbaa !28
  %36 = getelementptr inbounds nuw %struct._stritem, ptr %35, i32 0, i32 7
  %37 = load i16, ptr %36, align 2, !tbaa !31
  %38 = zext i16 %37 to i32
  %39 = and i32 %38, 256
  %40 = icmp ne i32 %39, 0
  br i1 %40, label %41, label %60

41:                                               ; preds = %34
  %42 = load ptr, ptr %6, align 8, !tbaa !28
  %43 = getelementptr inbounds nuw %struct._stritem, ptr %42, i32 0, i32 10
  %44 = load ptr, ptr %6, align 8, !tbaa !28
  %45 = getelementptr inbounds nuw %struct._stritem, ptr %44, i32 0, i32 9
  %46 = load i8, ptr %45, align 1, !tbaa !45
  %47 = zext i8 %46 to i32
  %48 = sext i32 %47 to i64
  %49 = getelementptr inbounds i8, ptr %43, i64 %48
  %50 = getelementptr inbounds i8, ptr %49, i64 1
  %51 = load ptr, ptr %6, align 8, !tbaa !28
  %52 = getelementptr inbounds nuw %struct._stritem, ptr %51, i32 0, i32 7
  %53 = load i16, ptr %52, align 2, !tbaa !31
  %54 = zext i16 %53 to i32
  %55 = and i32 %54, 2
  %56 = icmp ne i32 %55, 0
  %57 = select i1 %56, i64 8, i64 0
  %58 = getelementptr inbounds nuw i8, ptr %50, i64 %57
  %59 = load i32, ptr %58, align 4, !tbaa !20
  store i32 %59, ptr %12, align 4, !tbaa !20
  br label %61

60:                                               ; preds = %34
  store i32 0, ptr %12, align 4, !tbaa !20
  br label %61

61:                                               ; preds = %60, %41
  %62 = load ptr, ptr %6, align 8, !tbaa !28
  %63 = getelementptr inbounds nuw %struct._stritem, ptr %62, i32 0, i32 10
  %64 = load ptr, ptr %6, align 8, !tbaa !28
  %65 = getelementptr inbounds nuw %struct._stritem, ptr %64, i32 0, i32 7
  %66 = load i16, ptr %65, align 2, !tbaa !31
  %67 = zext i16 %66 to i32
  %68 = and i32 %67, 2
  %69 = icmp ne i32 %68, 0
  %70 = select i1 %69, i64 8, i64 0
  %71 = getelementptr inbounds nuw i8, ptr %63, i64 %70
  %72 = getelementptr inbounds [751 x i8], ptr %9, i64 0, i64 0
  %73 = load ptr, ptr %6, align 8, !tbaa !28
  %74 = getelementptr inbounds nuw %struct._stritem, ptr %73, i32 0, i32 9
  %75 = load i8, ptr %74, align 1, !tbaa !45
  %76 = zext i8 %75 to i64
  %77 = call zeroext i1 @uriencode(ptr noundef %71, ptr noundef %72, i64 noundef %76, i64 noundef 751)
  call void @llvm.lifetime.start.p0(i64 4, ptr %13) #11
  %78 = load ptr, ptr %5, align 8, !tbaa !4
  %79 = getelementptr inbounds nuw %struct._crawler_module_t, ptr %78, i32 0, i32 1
  %80 = getelementptr inbounds nuw %struct.crawler_client_t, ptr %79, i32 0, i32 4
  %81 = load ptr, ptr %80, align 8, !tbaa !56
  %82 = load ptr, ptr %5, align 8, !tbaa !4
  %83 = getelementptr inbounds nuw %struct._crawler_module_t, ptr %82, i32 0, i32 1
  %84 = getelementptr inbounds nuw %struct.crawler_client_t, ptr %83, i32 0, i32 3
  %85 = load i32, ptr %84, align 8, !tbaa !57
  %86 = sext i32 %85 to i64
  %87 = getelementptr inbounds i8, ptr %81, i64 %86
  %88 = getelementptr inbounds [751 x i8], ptr %9, i64 0, i64 0
  %89 = load ptr, ptr %6, align 8, !tbaa !28
  %90 = getelementptr inbounds nuw %struct._stritem, ptr %89, i32 0, i32 4
  %91 = load i32, ptr %90, align 4, !tbaa !20
  %92 = icmp eq i32 %91, 0
  br i1 %92, label %93, label %94

93:                                               ; preds = %61
  br label %101

94:                                               ; preds = %61
  %95 = load ptr, ptr %6, align 8, !tbaa !28
  %96 = getelementptr inbounds nuw %struct._stritem, ptr %95, i32 0, i32 4
  %97 = load i32, ptr %96, align 4, !tbaa !20
  %98 = zext i32 %97 to i64
  %99 = load i64, ptr @process_started, align 8, !tbaa !51
  %100 = add nsw i64 %98, %99
  br label %101

101:                                              ; preds = %94, %93
  %102 = phi i64 [ -1, %93 ], [ %100, %94 ]
  %103 = load ptr, ptr %6, align 8, !tbaa !28
  %104 = getelementptr inbounds nuw %struct._stritem, ptr %103, i32 0, i32 3
  %105 = load i32, ptr %104, align 8, !tbaa !20
  %106 = zext i32 %105 to i64
  %107 = load i64, ptr @process_started, align 8, !tbaa !51
  %108 = add nsw i64 %106, %107
  %109 = load ptr, ptr %6, align 8, !tbaa !28
  %110 = getelementptr inbounds nuw %struct._stritem, ptr %109, i32 0, i32 7
  %111 = load i16, ptr %110, align 2, !tbaa !31
  %112 = zext i16 %111 to i32
  %113 = and i32 %112, 2
  %114 = icmp ne i32 %113, 0
  br i1 %114, label %115, label %120

115:                                              ; preds = %101
  %116 = load ptr, ptr %6, align 8, !tbaa !28
  %117 = getelementptr inbounds nuw %struct._stritem, ptr %116, i32 0, i32 10
  %118 = getelementptr inbounds [0 x %union.anon], ptr %117, i64 0, i64 0
  %119 = load i64, ptr %118, align 8, !tbaa !45
  br label %121

120:                                              ; preds = %101
  br label %121

121:                                              ; preds = %120, %115
  %122 = phi i64 [ %119, %115 ], [ 0, %120 ]
  %123 = load ptr, ptr %6, align 8, !tbaa !28
  %124 = getelementptr inbounds nuw %struct._stritem, ptr %123, i32 0, i32 7
  %125 = load i16, ptr %124, align 2, !tbaa !31
  %126 = zext i16 %125 to i32
  %127 = and i32 %126, 8
  %128 = icmp ne i32 %127, 0
  %129 = select i1 %128, ptr @.str.10, ptr @.str.11
  %130 = load ptr, ptr %6, align 8, !tbaa !28
  %131 = getelementptr inbounds nuw %struct._stritem, ptr %130, i32 0, i32 8
  %132 = load i8, ptr %131, align 8, !tbaa !45
  %133 = zext i8 %132 to i32
  %134 = and i32 %133, -193
  %135 = load ptr, ptr %6, align 8, !tbaa !28
  %136 = getelementptr inbounds nuw %struct._stritem, ptr %135, i32 0, i32 9
  %137 = load i8, ptr %136, align 1, !tbaa !45
  %138 = zext i8 %137 to i64
  %139 = add i64 48, %138
  %140 = add i64 %139, 1
  %141 = load ptr, ptr %6, align 8, !tbaa !28
  %142 = getelementptr inbounds nuw %struct._stritem, ptr %141, i32 0, i32 5
  %143 = load i32, ptr %142, align 8, !tbaa !20
  %144 = sext i32 %143 to i64
  %145 = add i64 %140, %144
  %146 = load ptr, ptr %6, align 8, !tbaa !28
  %147 = getelementptr inbounds nuw %struct._stritem, ptr %146, i32 0, i32 7
  %148 = load i16, ptr %147, align 2, !tbaa !31
  %149 = zext i16 %148 to i32
  %150 = and i32 %149, 256
  %151 = icmp ne i32 %150, 0
  %152 = select i1 %151, i64 4, i64 0
  %153 = add i64 %145, %152
  %154 = load ptr, ptr %6, align 8, !tbaa !28
  %155 = getelementptr inbounds nuw %struct._stritem, ptr %154, i32 0, i32 7
  %156 = load i16, ptr %155, align 2, !tbaa !31
  %157 = zext i16 %156 to i32
  %158 = and i32 %157, 2
  %159 = icmp ne i32 %158, 0
  %160 = select i1 %159, i64 8, i64 0
  %161 = add i64 %153, %160
  %162 = load i32, ptr %12, align 4, !tbaa !20
  %163 = zext i32 %162 to i64
  %164 = call i32 (ptr, i64, ptr, ...) @snprintf(ptr noundef %87, i64 noundef 4096, ptr noundef @.str.9, ptr noundef %88, i64 noundef %102, i64 noundef %108, i64 noundef %122, ptr noundef %129, i32 noundef %134, i64 noundef %161, i64 noundef %163) #11
  store i32 %164, ptr %13, align 4, !tbaa !20
  %165 = load ptr, ptr %6, align 8, !tbaa !28
  %166 = getelementptr inbounds nuw %struct._stritem, ptr %165, i32 0, i32 6
  %167 = load i16, ptr %166, align 4, !tbaa !31
  %168 = add i16 %167, -1
  store i16 %168, ptr %166, align 4, !tbaa !31
  %169 = load i32, ptr %13, align 4, !tbaa !20
  %170 = icmp sge i32 %169, 8191
  br i1 %170, label %174, label %171

171:                                              ; preds = %121
  %172 = load i32, ptr %13, align 4, !tbaa !20
  %173 = icmp sle i32 %172, 0
  br i1 %173, label %174, label %175

174:                                              ; preds = %171, %121
  store i32 1, ptr %11, align 4
  br label %182

175:                                              ; preds = %171
  %176 = load i32, ptr %13, align 4, !tbaa !20
  %177 = load ptr, ptr %5, align 8, !tbaa !4
  %178 = getelementptr inbounds nuw %struct._crawler_module_t, ptr %177, i32 0, i32 1
  %179 = getelementptr inbounds nuw %struct.crawler_client_t, ptr %178, i32 0, i32 3
  %180 = load i32, ptr %179, align 8, !tbaa !57
  %181 = add nsw i32 %180, %176
  store i32 %181, ptr %179, align 8, !tbaa !57
  store i32 0, ptr %11, align 4
  br label %182

182:                                              ; preds = %175, %174
  call void @llvm.lifetime.end.p0(i64 4, ptr %13) #11
  call void @llvm.lifetime.end.p0(i64 4, ptr %12) #11
  br label %183

183:                                              ; preds = %182, %29
  call void @llvm.lifetime.end.p0(i64 4, ptr %10) #11
  call void @llvm.lifetime.end.p0(i64 751, ptr %9) #11
  %184 = load i32, ptr %11, align 4
  switch i32 %184, label %186 [
    i32 0, label %185
    i32 1, label %185
  ]

185:                                              ; preds = %183, %183
  ret void

186:                                              ; preds = %183
  unreachable
}