; Function Attrs: nounwind uwtable
define internal void @crawler_metadump_eval(ptr noundef captures(none) %0, ptr noundef %1, i32 %2, i32 %3) #0 {
  %5 = alloca [751 x i8], align 16
  call void @llvm.lifetime.start.p0(i64 751, ptr nonnull %5) #18
  %6 = tail call i32 @item_is_flushed(ptr noundef %1) #18
  %7 = getelementptr inbounds nuw i8, ptr %1, i64 28
  %8 = load i32, ptr %7, align 4, !tbaa !10
  %.not = icmp eq i32 %8, 0
  br i1 %.not, label %13, label %9

9:                                                ; preds = %4
  %10 = load volatile i32, ptr @current_time, align 4, !tbaa !10
  %11 = icmp ult i32 %8, %10
  %12 = icmp ne i32 %6, 0
  %or.cond = select i1 %11, i1 true, i1 %12
  br i1 %or.cond, label %14, label %18

13:                                               ; preds = %4
  %.old1.not = icmp eq i32 %6, 0
  br i1 %.old1.not, label %18, label %14

14:                                               ; preds = %13, %9
  %15 = getelementptr inbounds nuw i8, ptr %1, i64 36
  %16 = load i16, ptr %15, align 4, !tbaa !23
  %17 = add i16 %16, -1
  store i16 %17, ptr %15, align 4, !tbaa !23
  br label %95

18:                                               ; preds = %9, %13
  %19 = getelementptr inbounds nuw i8, ptr %1, i64 38
  %20 = load i16, ptr %19, align 2, !tbaa !23
  %21 = zext i16 %20 to i32
  %22 = and i32 %21, 256
  %.not38 = icmp eq i32 %22, 0
  br i1 %.not38, label %._crit_edge, label %23

._crit_edge:                                      ; preds = %18
  %.phi.trans.insert = getelementptr inbounds nuw i8, ptr %1, i64 41
  %.pre = load i8, ptr %.phi.trans.insert, align 1, !tbaa !36
  %.pre45 = zext i8 %.pre to i64
  br label %36

23:                                               ; preds = %18
  %24 = getelementptr inbounds nuw i8, ptr %1, i64 48
  %25 = getelementptr inbounds nuw i8, ptr %1, i64 41
  %26 = load i8, ptr %25, align 1, !tbaa !36
  %27 = zext i8 %26 to i64
  %28 = getelementptr inbounds nuw i8, ptr %24, i64 %27
  %29 = getelementptr inbounds nuw i8, ptr %28, i64 1
  %30 = shl nuw nsw i32 %21, 2
  %31 = and i32 %30, 8
  %32 = zext nneg i32 %31 to i64
  %33 = getelementptr inbounds nuw i8, ptr %29, i64 %32
  %34 = load i32, ptr %33, align 4, !tbaa !10
  %35 = zext i32 %34 to i64
  br label %36

36:                                               ; preds = %._crit_edge, %23
  %.pre-phi = phi i64 [ %.pre45, %._crit_edge ], [ %27, %23 ]
  %.0 = phi i64 [ 0, %._crit_edge ], [ %35, %23 ]
  %37 = getelementptr inbounds nuw i8, ptr %1, i64 48
  %38 = shl i16 %20, 2
  %39 = and i16 %38, 8
  %40 = zext nneg i16 %39 to i64
  %41 = getelementptr inbounds nuw i8, ptr %37, i64 %40
  %42 = getelementptr inbounds nuw i8, ptr %1, i64 41
  %43 = call zeroext i1 @uriencode(ptr noundef nonnull %41, ptr noundef nonnull %5, i64 noundef %.pre-phi, i64 noundef 751) #18
  %44 = getelementptr inbounds nuw i8, ptr %0, i64 32
  %45 = load ptr, ptr %44, align 8, !tbaa !49
  %46 = getelementptr inbounds nuw i8, ptr %0, i64 24
  %47 = load i32, ptr %46, align 8, !tbaa !50
  %48 = sext i32 %47 to i64
  %49 = getelementptr inbounds i8, ptr %45, i64 %48
  %50 = load i32, ptr %7, align 4, !tbaa !10
  %51 = icmp eq i32 %50, 0
  %52 = zext i32 %50 to i64
  %53 = load i64, ptr @process_started, align 8
  %54 = add nsw i64 %53, %52
  %55 = select i1 %51, i64 -1, i64 %54
  %56 = getelementptr inbounds nuw i8, ptr %1, i64 24
  %57 = load i32, ptr %56, align 8, !tbaa !10
  %58 = zext i32 %57 to i64
  %59 = add nsw i64 %53, %58
  %60 = load i16, ptr %19, align 2, !tbaa !23
  %61 = and i16 %60, 2
  %.not41 = icmp eq i16 %61, 0
  br i1 %.not41, label %64, label %62

62:                                               ; preds = %36
  %63 = load i64, ptr %37, align 8, !tbaa !36
  br label %64

64:                                               ; preds = %36, %62
  %65 = phi i64 [ %63, %62 ], [ 0, %36 ]
  %66 = zext i16 %60 to i32
  %67 = and i32 %66, 8
  %.not42 = icmp eq i32 %67, 0
  %68 = select i1 %.not42, ptr @.str.11, ptr @.str.10
  %69 = getelementptr inbounds nuw i8, ptr %1, i64 40
  %70 = load i8, ptr %69, align 8, !tbaa !36
  %71 = and i8 %70, 63
  %72 = zext nneg i8 %71 to i32
  %73 = load i8, ptr %42, align 1, !tbaa !36
  %74 = zext i8 %73 to i64
  %75 = getelementptr inbounds nuw i8, ptr %1, i64 32
  %76 = load i32, ptr %75, align 8, !tbaa !10
  %77 = sext i32 %76 to i64
  %78 = lshr i32 %66, 6
  %79 = and i32 %78, 4
  %80 = shl nuw nsw i32 %66, 2
  %81 = and i32 %80, 8
  %82 = or disjoint i32 %79, %81
  %83 = or disjoint i32 %82, 49
  %84 = zext nneg i32 %83 to i64
  %85 = add nuw nsw i64 %84, %74
  %86 = add nsw i64 %85, %77
  %87 = call i32 (ptr, i64, ptr, ...) @snprintf(ptr noundef nonnull dereferenceable(1) %49, i64 noundef 4096, ptr noundef nonnull @.str.9, ptr noundef nonnull %5, i64 noundef %55, i64 noundef %59, i64 noundef %65, ptr noundef nonnull %68, i32 noundef %72, i64 noundef %86, i64 noundef %.0) #18
  %88 = getelementptr inbounds nuw i8, ptr %1, i64 36
  %89 = load i16, ptr %88, align 4, !tbaa !23
  %90 = add i16 %89, -1
  store i16 %90, ptr %88, align 4, !tbaa !23
  %91 = add i32 %87, -8191
  %or.cond4 = icmp ult i32 %91, -8190
  br i1 %or.cond4, label %95, label %92

92:                                               ; preds = %64
  %93 = load i32, ptr %46, align 8, !tbaa !50
  %94 = add nsw i32 %93, %87
  store i32 %94, ptr %46, align 8, !tbaa !50
  br label %95

95:                                               ; preds = %92, %64, %14
  call void @llvm.lifetime.end.p0(i64 751, ptr nonnull %5) #18
  ret void
}